target datalayout = "e-m:e-p270:32:32-p271:32:32-p272:64:64-i64:64-i128:128-f80:128-n8:16:32:64-S128"
target triple = "x86_64-pc-linux-gnu"

%struct.SimpleStringList = type { ptr, ptr }
%struct.SimpleStringListCell = type { ptr, i8, [0 x i8] }
%struct.PQExpBufferData = type { ptr, i64, i64 }

@.str.32 = private unnamed_addr constant [200 x i8] c"SELECT c.relname, ns.nspname\0A FROM pg_catalog.pg_class c\0A JOIN pg_catalog.pg_namespace ns ON c.relnamespace = ns.oid\0A WHERE c.relkind IN ('r', 'm')\0A   AND c.relpersistence != 't'\0A AND ns.nspname IN (\00", align 1
@.str.33 = private unnamed_addr constant [3 x i8] c", \00", align 1
@.str.34 = private unnamed_addr constant [29 x i8] c")\0A ORDER BY c.relpages DESC;\00", align 1
@.str.36 = private unnamed_addr constant [5 x i8] c"', '\00", align 1
@.str.37 = private unnamed_addr constant [136 x i8] c"']::pg_catalog.regclass[])\0AORDER BY max(i.relpages) OVER \0A    (PARTITION BY n.nspname, t.relname),\0A  n.nspname, t.relname, i.relpages;\0A\00", align 1

; Function Attrs: nounwind uwtable
define internal ptr @get_parallel_object_list(ptr noundef %0, i32 noundef %1, ptr noundef %2, i1 noundef zeroext %3) #0 {
  %5 = alloca ptr, align 8
  %6 = alloca ptr, align 8
  %7 = alloca i32, align 4
  %8 = alloca ptr, align 8
  %9 = alloca i8, align 1
  %10 = alloca %struct.PQExpBufferData, align 8
  %11 = alloca %struct.PQExpBufferData, align 8
  %12 = alloca ptr, align 8
  %13 = alloca ptr, align 8
  %14 = alloca i32, align 4
  %15 = alloca i32, align 4
  %16 = alloca ptr, align 8
  %17 = alloca i8, align 1
  %18 = alloca ptr, align 8
  %19 = alloca ptr, align 8
  %20 = alloca i32, align 4
  store ptr %0, ptr %6, align 8
  store i32 %1, ptr %7, align 4
  store ptr %2, ptr %8, align 8
  %21 = zext i1 %3 to i8
  store i8 %21, ptr %9, align 1
  call void @llvm.lifetime.start.p0(i64 24, ptr %10) #8
  call void @llvm.lifetime.start.p0(i64 24, ptr %11) #8
  call void @llvm.lifetime.start.p0(i64 8, ptr %12) #8
  call void @llvm.lifetime.start.p0(i64 8, ptr %13) #8
  call void @llvm.lifetime.start.p0(i64 4, ptr %14) #8
  call void @llvm.lifetime.start.p0(i64 4, ptr %15) #8
  call void @initPQExpBuffer(ptr noundef %10)
  %22 = load i32, ptr %7, align 4
  switch i32 %22, label %79 [
    i32 0, label %23
    i32 2, label %24
    i32 1, label %47
    i32 3, label %78
    i32 4, label %78
  ]

23:                                               ; preds = %4
  call void @appendPQExpBufferStr(ptr noundef %10, ptr noundef @.str.31)
  br label %79

24:                                               ; preds = %4
  call void @llvm.lifetime.start.p0(i64 8, ptr %16) #8
  call void @llvm.lifetime.start.p0(i64 1, ptr %17) #8
  store i8 0, ptr %17, align 1
  call void @appendPQExpBufferStr(ptr noundef %10, ptr noundef @.str.32)
  %25 = load ptr, ptr %8, align 8
  %26 = getelementptr inbounds nuw %struct.SimpleStringList, ptr %25, i32 0, i32 0
  %27 = load ptr, ptr %26, align 8
  store ptr %27, ptr %16, align 8
  br label %28

28:                                               ; preds = %42, %24
  %29 = load ptr, ptr %16, align 8
  %30 = icmp ne ptr %29, null
  br i1 %30, label %31, label %46

31:                                               ; preds = %28
  call void @llvm.lifetime.start.p0(i64 8, ptr %18) #8
  %32 = load ptr, ptr %16, align 8
  %33 = getelementptr inbounds nuw %struct.SimpleStringListCell, ptr %32, i32 0, i32 2
  %34 = getelementptr inbounds [0 x i8], ptr %33, i64 0, i64 0
  store ptr %34, ptr %18, align 8
  %35 = load i8, ptr %17, align 1, !range !6, !noundef !7
  %36 = trunc i8 %35 to i1
  br i1 %36, label %37, label %38

37:                                               ; preds = %31
  call void @appendPQExpBufferStr(ptr noundef %10, ptr noundef @.str.33)
  br label %39

38:                                               ; preds = %31
  store i8 1, ptr %17, align 1
  br label %39

39:                                               ; preds = %38, %37
  %40 = load ptr, ptr %18, align 8
  %41 = load ptr, ptr %6, align 8
  call void @appendStringLiteralConn(ptr noundef %10, ptr noundef %40, ptr noundef %41)
  call void @llvm.lifetime.end.p0(i64 8, ptr %18) #8
  br label %42

42:                                               ; preds = %39
  %43 = load ptr, ptr %16, align 8
  %44 = getelementptr inbounds nuw %struct.SimpleStringListCell, ptr %43, i32 0, i32 0
  %45 = load ptr, ptr %44, align 8
  store ptr %45, ptr %16, align 8
  br label %28, !llvm.loop !11

46:                                               ; preds = %28
  call void @appendPQExpBufferStr(ptr noundef %10, ptr noundef @.str.34)
  call void @llvm.lifetime.end.p0(i64 1, ptr %17) #8
  call void @llvm.lifetime.end.p0(i64 8, ptr %16) #8
  br label %79

47:                                               ; preds = %4
  call void @llvm.lifetime.start.p0(i64 8, ptr %19) #8
  call void @appendPQExpBufferStr(ptr noundef %10, ptr noundef @.str.35)
  %48 = load ptr, ptr %8, align 8
  %49 = getelementptr inbounds nuw %struct.SimpleStringList, ptr %48, i32 0, i32 0
  %50 = load ptr, ptr %49, align 8
  store ptr %50, ptr %19, align 8
  br label %51

51:                                               ; preds = %68, %47
  %52 = load ptr, ptr %19, align 8
  %53 = icmp ne ptr %52, null
  br i1 %53, label %54, label %72

54:                                               ; preds = %51
  %55 = load ptr, ptr %19, align 8
  %56 = load ptr, ptr %8, align 8
  %57 = getelementptr inbounds nuw %struct.SimpleStringList, ptr %56, i32 0, i32 0
  %58 = load ptr, ptr %57, align 8
  %59 = icmp ne ptr %55, %58
  br i1 %59, label %60, label %61

60:                                               ; preds = %54
  call void @appendPQExpBufferStr(ptr noundef %10, ptr noundef @.str.36)
  br label %61

61:                                               ; preds = %60, %54
  %62 = load ptr, ptr %19, align 8
  %63 = getelementptr inbounds nuw %struct.SimpleStringListCell, ptr %62, i32 0, i32 2
  %64 = getelementptr inbounds [0 x i8], ptr %63, i64 0, i64 0
  %65 = load ptr, ptr %6, align 8
  %66 = load i8, ptr %9, align 1, !range !6, !noundef !7
  %67 = trunc i8 %66 to i1
  call void @appendQualifiedRelation(ptr noundef %10, ptr noundef %64, ptr noundef %65, i1 noundef zeroext %67)
  br label %68

68:                                               ; preds = %61
  %69 = load ptr, ptr %19, align 8
  %70 = getelementptr inbounds nuw %struct.SimpleStringListCell, ptr %69, i32 0, i32 0
  %71 = load ptr, ptr %70, align 8
  store ptr %71, ptr %19, align 8
  br label %51, !llvm.loop !12

72:                                               ; preds = %51
  call void @appendPQExpBufferStr(ptr noundef %10, ptr noundef @.str.37)
  %73 = load ptr, ptr %8, align 8
  call void @simple_string_list_destroy(ptr noundef %73)
  %74 = load ptr, ptr %8, align 8
  %75 = getelementptr inbounds nuw %struct.SimpleStringList, ptr %74, i32 0, i32 1
  store ptr null, ptr %75, align 8
  %76 = load ptr, ptr %8, align 8
  %77 = getelementptr inbounds nuw %struct.SimpleStringList, ptr %76, i32 0, i32 0
  store ptr null, ptr %77, align 8
  call void @llvm.lifetime.end.p0(i64 8, ptr %19) #8
  br label %79

78:                                               ; preds = %4, %4
  br label %79

79:                                               ; preds = %4, %78, %72, %46, %23
  %80 = load ptr, ptr %6, align 8
  %81 = getelementptr inbounds nuw %struct.PQExpBufferData, ptr %10, i32 0, i32 0
  %82 = load ptr, ptr %81, align 8
  %83 = load i8, ptr %9, align 1, !range !6, !noundef !7
  %84 = trunc i8 %83 to i1
  %85 = call ptr @executeQuery(ptr noundef %80, ptr noundef %82, i1 noundef zeroext %84)
  store ptr %85, ptr %12, align 8
  call void @termPQExpBuffer(ptr noundef %10)
  %86 = load ptr, ptr %12, align 8
  %87 = call i32 @PQntuples(ptr noundef %86)
  store i32 %87, ptr %14, align 4
  %88 = load i32, ptr %14, align 4
  %89 = icmp eq i32 %88, 0
  br i1 %89, label %90, label %93

90:                                               ; preds = %79
  %91 = load ptr, ptr %12, align 8
  call void @PQclear(ptr noundef %91)
  %92 = load ptr, ptr %6, align 8
  call void @PQfinish(ptr noundef %92)
  store ptr null, ptr %5, align 8
  store i32 1, ptr %20, align 4
  br label %134

93:                                               ; preds = %79
  %94 = call ptr @pg_malloc0(i64 noundef 16)
  store ptr %94, ptr %13, align 8
  call void @initPQExpBuffer(ptr noundef %11)
  store i32 0, ptr %15, align 4
  br label %95

95:                                               ; preds = %128, %93
  %96 = load i32, ptr %15, align 4
  %97 = load i32, ptr %14, align 4
  %98 = icmp slt i32 %96, %97
  br i1 %98, label %99, label %131

99:                                               ; preds = %95
  %100 = load ptr, ptr %12, align 8
  %101 = load i32, ptr %15, align 4
  %102 = call ptr @PQgetvalue(ptr noundef %100, i32 noundef %101, i32 noundef 1)
  %103 = load ptr, ptr %12, align 8
  %104 = load i32, ptr %15, align 4
  %105 = call ptr @PQgetvalue(ptr noundef %103, i32 noundef %104, i32 noundef 0)
  %106 = load ptr, ptr %6, align 8
  %107 = call i32 @PQclientEncoding(ptr noundef %106)
  %108 = call ptr @fmtQualifiedIdEnc(ptr noundef %102, ptr noundef %105, i32 noundef %107)
  call void @appendPQExpBufferStr(ptr noundef %11, ptr noundef %108)
  %109 = load ptr, ptr %13, align 8
  %110 = getelementptr inbounds nuw %struct.PQExpBufferData, ptr %11, i32 0, i32 0
  %111 = load ptr, ptr %110, align 8
  call void @simple_string_list_append(ptr noundef %109, ptr noundef %111)
  call void @resetPQExpBuffer(ptr noundef %11)
  %112 = load i32, ptr %7, align 4
  %113 = icmp eq i32 %112, 1
  br i1 %113, label %114, label %127

114:                                              ; preds = %99
  %115 = load ptr, ptr %12, align 8
  %116 = load i32, ptr %15, align 4
  %117 = call ptr @PQgetvalue(ptr noundef %115, i32 noundef %116, i32 noundef 1)
  %118 = load ptr, ptr %12, align 8
  %119 = load i32, ptr %15, align 4
  %120 = call ptr @PQgetvalue(ptr noundef %118, i32 noundef %119, i32 noundef 2)
  %121 = load ptr, ptr %6, align 8
  %122 = call i32 @PQclientEncoding(ptr noundef %121)
  %123 = call ptr @fmtQualifiedIdEnc(ptr noundef %117, ptr noundef %120, i32 noundef %122)
  call void @appendPQExpBufferStr(ptr noundef %11, ptr noundef %123)
  %124 = load ptr, ptr %8, align 8
  %125 = getelementptr inbounds nuw %struct.PQExpBufferData, ptr %11, i32 0, i32 0
  %126 = load ptr, ptr %125, align 8
  call void @simple_string_list_append(ptr noundef %124, ptr noundef %126)
  call void @resetPQExpBuffer(ptr noundef %11)
  br label %127

127:                                              ; preds = %114, %99
  br label %128

128:                                              ; preds = %127
  %129 = load i32, ptr %15, align 4
  %130 = add i32 %129, 1
  store i32 %130, ptr %15, align 4
  br label %95, !llvm.loop !13

131:                                              ; preds = %95
  call void @termPQExpBuffer(ptr noundef %11)
  %132 = load ptr, ptr %12, align 8
  call void @PQclear(ptr noundef %132)
  %133 = load ptr, ptr %13, align 8
  store ptr %133, ptr %5, align 8
  store i32 1, ptr %20, align 4
  br label %134

134:                                              ; preds = %131, %90
  call void @llvm.lifetime.end.p0(i64 4, ptr %15) #8
  call void @llvm.lifetime.end.p0(i64 4, ptr %14) #8
  call void @llvm.lifetime.end.p0(i64 8, ptr %13) #8
  call void @llvm.lifetime.end.p0(i64 8, ptr %12) #8
  call void @llvm.lifetime.end.p0(i64 24, ptr %11) #8
  call void @llvm.lifetime.end.p0(i64 24, ptr %10) #8
  %135 = load ptr, ptr %5, align 8
  ret ptr %135
}