; Function Attrs: nounwind uwtable
define internal fastcc ptr @get_parallel_object_list(ptr noundef %0, i32 noundef range(i32 0, 3) %1, ptr noundef %2, i1 noundef zeroext %3) unnamed_addr #4 {
  %5 = alloca %struct.PQExpBufferData, align 8
  %6 = alloca %struct.PQExpBufferData, align 8
  call void @llvm.lifetime.start.p0(i64 24, ptr nonnull %5) #11
  call void @llvm.lifetime.start.p0(i64 24, ptr nonnull %6) #11
  call void @initPQExpBuffer(ptr noundef nonnull %5) #11
  switch i32 %1, label %default.unreachable66 [
    i32 0, label %7
    i32 2, label %8
    i32 1, label %12
  ]

7:                                                ; preds = %4
  call void @appendPQExpBufferStr(ptr noundef nonnull %5, ptr noundef nonnull @.str.31) #11
  br label %17

8:                                                ; preds = %4
  call void @appendPQExpBufferStr(ptr noundef nonnull %5, ptr noundef nonnull @.str.32) #11
  %.04553 = load ptr, ptr %2, align 8
  %.not4954 = icmp eq ptr %.04553, null
  br i1 %.not4954, label %._crit_edge59, label %.lr.ph58

.lr.ph58:                                         ; preds = %8, %11
  %.04556 = phi ptr [ %.045, %11 ], [ %.04553, %8 ]
  %.04455 = phi i1 [ true, %11 ], [ false, %8 ]
  %9 = getelementptr inbounds nuw i8, ptr %.04556, i64 9
  br i1 %.04455, label %10, label %11

10:                                               ; preds = %.lr.ph58
  call void @appendPQExpBufferStr(ptr noundef nonnull %5, ptr noundef nonnull @.str.33) #11
  br label %11

11:                                               ; preds = %.lr.ph58, %10
  call void @appendStringLiteralConn(ptr noundef nonnull %5, ptr noundef nonnull %9, ptr noundef %0) #11
  %.045 = load ptr, ptr %.04556, align 8
  %.not49 = icmp eq ptr %.045, null
  br i1 %.not49, label %._crit_edge59, label %.lr.ph58, !llvm.loop !9

._crit_edge59:                                    ; preds = %11, %8
  call void @appendPQExpBufferStr(ptr noundef nonnull %5, ptr noundef nonnull @.str.34) #11
  br label %17

12:                                               ; preds = %4
  call void @appendPQExpBufferStr(ptr noundef nonnull %5, ptr noundef nonnull @.str.35) #11
  %.050 = load ptr, ptr %2, align 8
  %.not51 = icmp eq ptr %.050, null
  br i1 %.not51, label %._crit_edge, label %.lr.ph

.lr.ph:                                           ; preds = %12, %15
  %.052 = phi ptr [ %.0, %15 ], [ %.050, %12 ]
  %13 = load ptr, ptr %2, align 8
  %.not48 = icmp eq ptr %.052, %13
  br i1 %.not48, label %15, label %14

14:                                               ; preds = %.lr.ph
  call void @appendPQExpBufferStr(ptr noundef nonnull %5, ptr noundef nonnull @.str.36) #11
  br label %15

15:                                               ; preds = %14, %.lr.ph
  %16 = getelementptr inbounds nuw i8, ptr %.052, i64 9
  call void @appendQualifiedRelation(ptr noundef nonnull %5, ptr noundef nonnull %16, ptr noundef %0, i1 noundef zeroext %3) #11
  %.0 = load ptr, ptr %.052, align 8
  %.not = icmp eq ptr %.0, null
  br i1 %.not, label %._crit_edge, label %.lr.ph, !llvm.loop !10

._crit_edge:                                      ; preds = %15, %12
  call void @appendPQExpBufferStr(ptr noundef nonnull %5, ptr noundef nonnull @.str.37) #11
  call void @simple_string_list_destroy(ptr noundef nonnull %2) #11
  call void @llvm.memset.p0.i64(ptr noundef nonnull align 8 dereferenceable(16) %2, i8 0, i64 16, i1 false)
  br label %17

default.unreachable66:                            ; preds = %4
  unreachable

17:                                               ; preds = %._crit_edge, %._crit_edge59, %7
  %18 = load ptr, ptr %5, align 8
  %19 = call ptr @executeQuery(ptr noundef %0, ptr noundef %18, i1 noundef zeroext %3) #11
  call void @termPQExpBuffer(ptr noundef nonnull %5) #11
  %20 = call i32 @PQntuples(ptr noundef %19) #11
  %21 = icmp eq i32 %20, 0
  br i1 %21, label %22, label %23

22:                                               ; preds = %17
  call void @PQclear(ptr noundef %19) #11
  call void @PQfinish(ptr noundef %0) #11
  br label %44

23:                                               ; preds = %17
  %24 = call ptr @pg_malloc0(i64 noundef 16) #11
  call void @initPQExpBuffer(ptr noundef nonnull %6) #11
  %25 = icmp sgt i32 %20, 0
  br i1 %25, label %.lr.ph62, label %._crit_edge63

.lr.ph62:                                         ; preds = %23
  %26 = icmp eq i32 %1, 1
  br i1 %26, label %.lr.ph62.split.us, label %.lr.ph62.split

.lr.ph62.split.us:                                ; preds = %.lr.ph62, %.lr.ph62.split.us
  %.04660.us = phi i32 [ %37, %.lr.ph62.split.us ], [ 0, %.lr.ph62 ]
  %27 = call ptr @PQgetvalue(ptr noundef %19, i32 noundef %.04660.us, i32 noundef 1) #11
  %28 = call ptr @PQgetvalue(ptr noundef %19, i32 noundef %.04660.us, i32 noundef 0) #11
  %29 = call i32 @PQclientEncoding(ptr noundef %0) #11
  %30 = call ptr @fmtQualifiedIdEnc(ptr noundef %27, ptr noundef %28, i32 noundef %29) #11
  call void @appendPQExpBufferStr(ptr noundef nonnull %6, ptr noundef %30) #11
  %31 = load ptr, ptr %6, align 8
  call void @simple_string_list_append(ptr noundef %24, ptr noundef %31) #11
  call void @resetPQExpBuffer(ptr noundef nonnull %6) #11
  %32 = call ptr @PQgetvalue(ptr noundef %19, i32 noundef %.04660.us, i32 noundef 1) #11
  %33 = call ptr @PQgetvalue(ptr noundef %19, i32 noundef %.04660.us, i32 noundef 2) #11
  %34 = call i32 @PQclientEncoding(ptr noundef %0) #11
  %35 = call ptr @fmtQualifiedIdEnc(ptr noundef %32, ptr noundef %33, i32 noundef %34) #11
  call void @appendPQExpBufferStr(ptr noundef nonnull %6, ptr noundef %35) #11
  %36 = load ptr, ptr %6, align 8
  call void @simple_string_list_append(ptr noundef %2, ptr noundef %36) #11
  call void @resetPQExpBuffer(ptr noundef nonnull %6) #11
  %37 = add nuw nsw i32 %.04660.us, 1
  %exitcond65.not = icmp eq i32 %37, %20
  br i1 %exitcond65.not, label %._crit_edge63, label %.lr.ph62.split.us, !llvm.loop !11

.lr.ph62.split:                                   ; preds = %.lr.ph62, %.lr.ph62.split
  %.04660 = phi i32 [ %43, %.lr.ph62.split ], [ 0, %.lr.ph62 ]
  %38 = call ptr @PQgetvalue(ptr noundef %19, i32 noundef %.04660, i32 noundef 1) #11
  %39 = call ptr @PQgetvalue(ptr noundef %19, i32 noundef %.04660, i32 noundef 0) #11
  %40 = call i32 @PQclientEncoding(ptr noundef %0) #11
  %41 = call ptr @fmtQualifiedIdEnc(ptr noundef %38, ptr noundef %39, i32 noundef %40) #11
  call void @appendPQExpBufferStr(ptr noundef nonnull %6, ptr noundef %41) #11
  %42 = load ptr, ptr %6, align 8
  call void @simple_string_list_append(ptr noundef %24, ptr noundef %42) #11
  call void @resetPQExpBuffer(ptr noundef nonnull %6) #11
  %43 = add nuw nsw i32 %.04660, 1
  %exitcond.not = icmp eq i32 %43, %20
  br i1 %exitcond.not, label %._crit_edge63, label %.lr.ph62.split, !llvm.loop !11

._crit_edge63:                                    ; preds = %.lr.ph62.split, %.lr.ph62.split.us, %23
  call void @termPQExpBuffer(ptr noundef nonnull %6) #11
  call void @PQclear(ptr noundef %19) #11
  br label %44

44:                                               ; preds = %._crit_edge63, %22
  %.043 = phi ptr [ null, %22 ], [ %24, %._crit_edge63 ]
  call void @llvm.lifetime.end.p0(i64 24, ptr nonnull %6) #11
  call void @llvm.lifetime.end.p0(i64 24, ptr nonnull %5) #11
  ret ptr %.043
}